; Function Attrs: mustprogress uwtable
define internal void @_ZL12init_opensslv() #3 personality ptr @__gxx_personality_v0 {
  %1 = alloca %"class.absl::lts_20240722::log_internal::LogMessageFatal", align 8
  %2 = alloca %"class.absl::lts_20240722::log_internal::LogMessageFatal", align 8
  %3 = alloca %"class.absl::lts_20240722::log_internal::LogMessageFatal", align 8
  %4 = tail call i32 @OPENSSL_init_ssl(i64 noundef 0, ptr noundef null)
  %5 = tail call i32 @atexit(ptr noundef nonnull @"_ZZL12init_opensslvEN3$_08__invokeEv") #32
  %6 = tail call i32 @SSL_CTX_get_ex_new_index(i64 noundef 0, ptr noundef null, ptr noundef null, ptr noundef null, ptr noundef null)
  store i32 %6, ptr @_ZL26g_ssl_ctx_ex_factory_index, align 4, !tbaa !21
  %.not.i.i = icmp eq i32 %6, -1
  br i1 %.not.i.i, label %9, label %7, !prof !28

7:                                                ; preds = %0
  %8 = tail call i32 @SSL_CTX_get_ex_new_index(i64 noundef 0, ptr noundef null, ptr noundef null, ptr noundef null, ptr noundef null)
  store i32 %8, ptr @_ZL31g_ssl_ctx_ex_crl_provider_index, align 4, !tbaa !21
  %.not.i.i14 = icmp eq i32 %8, -1
  br i1 %.not.i.i14, label %16, label %14, !prof !28

9:                                                ; preds = %0
  %10 = tail call noundef nonnull ptr @_ZN4absl12lts_2024072212log_internal17MakeCheckOpStringIllEEPNSt7__cxx1112basic_stringIcSt11char_traitsIcESaIcEEET_T0_PKc(i64 noundef -1, i64 noundef -1, ptr noundef nonnull @.str.72)
  call void @llvm.lifetime.start.p0(i64 16, ptr nonnull %1) #32
  %11 = load ptr, ptr %10, align 8, !tbaa !4
  %12 = getelementptr inbounds nuw i8, ptr %10, i64 8
  %13 = load i64, ptr %12, align 8, !tbaa !12
  call void @_ZN4absl12lts_2024072212log_internal15LogMessageFatalC1EPKciSt17basic_string_viewIcSt11char_traitsIcEE(ptr noundef nonnull align 8 dereferenceable(16) %1, ptr noundef nonnull @.str.1, i32 noundef 219, i64 %13, ptr %11) #33
  call void @_ZN4absl12lts_2024072212log_internal15LogMessageFatalD1Ev(ptr noundef nonnull align 8 dereferenceable(16) %1) #35
  unreachable

14:                                               ; preds = %7
  %15 = tail call i32 @SSL_get_ex_new_index(i64 noundef 0, ptr noundef null, ptr noundef null, ptr noundef null, ptr noundef nonnull @_ZL23verified_root_cert_freePvS_P17crypto_ex_data_stilS_)
  store i32 %15, ptr @_ZL33g_ssl_ex_verified_root_cert_index, align 4, !tbaa !21
  %.not.i.i16 = icmp eq i32 %15, -1
  br i1 %.not.i.i16, label %22, label %21, !prof !28

16:                                               ; preds = %7
  %17 = tail call noundef nonnull ptr @_ZN4absl12lts_2024072212log_internal17MakeCheckOpStringIllEEPNSt7__cxx1112basic_stringIcSt11char_traitsIcESaIcEEET_T0_PKc(i64 noundef -1, i64 noundef -1, ptr noundef nonnull @.str.73)
  call void @llvm.lifetime.start.p0(i64 16, ptr nonnull %2) #32
  %18 = load ptr, ptr %17, align 8, !tbaa !4
  %19 = getelementptr inbounds nuw i8, ptr %17, i64 8
  %20 = load i64, ptr %19, align 8, !tbaa !12
  call void @_ZN4absl12lts_2024072212log_internal15LogMessageFatalC1EPKciSt17basic_string_viewIcSt11char_traitsIcEE(ptr noundef nonnull align 8 dereferenceable(16) %2, ptr noundef nonnull @.str.1, i32 noundef 223, i64 %20, ptr %18) #33
  call void @_ZN4absl12lts_2024072212log_internal15LogMessageFatalD1Ev(ptr noundef nonnull align 8 dereferenceable(16) %2) #35
  unreachable

21:                                               ; preds = %14
  ret void

22:                                               ; preds = %14
  %23 = tail call noundef nonnull ptr @_ZN4absl12lts_2024072212log_internal17MakeCheckOpStringIllEEPNSt7__cxx1112basic_stringIcSt11char_traitsIcESaIcEEET_T0_PKc(i64 noundef -1, i64 noundef -1, ptr noundef nonnull @.str.74)
  call void @llvm.lifetime.start.p0(i64 16, ptr nonnull %3) #32
  %24 = load ptr, ptr %23, align 8, !tbaa !4
  %25 = getelementptr inbounds nuw i8, ptr %23, i64 8
  %26 = load i64, ptr %25, align 8, !tbaa !12
  call void @_ZN4absl12lts_2024072212log_internal15LogMessageFatalC1EPKciSt17basic_string_viewIcSt11char_traitsIcEE(ptr noundef nonnull align 8 dereferenceable(16) %3, ptr noundef nonnull @.str.1, i32 noundef 227, i64 %26, ptr %24) #33
  call void @_ZN4absl12lts_2024072212log_internal15LogMessageFatalD1Ev(ptr noundef nonnull align 8 dereferenceable(16) %3) #35
  unreachable
}